; Function Attrs: nounwind sspstrong uwtable
define internal fastcc noundef ptr @rb_node_defs_new(ptr noundef captures(none) %0, ptr noundef %1, i64 noundef %2, ptr noundef nonnull readonly captures(none) %3) unnamed_addr #0 {
  %5 = getelementptr i8, ptr %0, i64 288
  %.val.i = load ptr, ptr %5, align 8, !tbaa !120
  %6 = tail call ptr @rb_ast_newnode(ptr noundef %.val.i, i32 noundef range(i32 0, 115) 81, i64 noundef range(i64 32, 129) 56, i64 noundef 8) #31
  tail call void @rb_node_init(ptr noundef %6, i32 noundef range(i32 0, 115) 81) #31
  %7 = getelementptr inbounds nuw i8, ptr %6, i64 8
  tail call void @llvm.memcpy.p0.p0.i64(ptr noundef nonnull align 8 dereferenceable(16) %7, ptr noundef nonnull readonly align 4 dereferenceable(16) %3, i64 16, i1 false), !tbaa.struct !11
  %8 = load i32, ptr %3, align 4, !tbaa !51
  %9 = sext i32 %8 to i64
  %10 = load i64, ptr %6, align 8, !tbaa !61
  %11 = and i64 %10, 32767
  %12 = shl nsw i64 %9, 15
  %13 = or disjoint i64 %11, %12
  store i64 %13, ptr %6, align 8, !tbaa !61
  %14 = getelementptr inbounds nuw i8, ptr %0, i64 296
  %15 = load i32, ptr %14, align 8, !tbaa !192
  %16 = add nsw i32 %15, 1
  store i32 %16, ptr %14, align 8, !tbaa !192
  %17 = getelementptr inbounds nuw i8, ptr %6, i64 24
  store i32 %15, ptr %17, align 8, !tbaa !193
  %18 = getelementptr inbounds nuw i8, ptr %6, i64 32
  store ptr %1, ptr %18, align 8, !tbaa !300
  %19 = getelementptr inbounds nuw i8, ptr %6, i64 40
  store i64 %2, ptr %19, align 8, !tbaa !301
  %20 = getelementptr inbounds nuw i8, ptr %6, i64 48
  store ptr null, ptr %20, align 8, !tbaa !85
  ret ptr %6
}